; Function Attrs: mustprogress uwtable
define void @_ZN14colvarbias_albC1EPKc(ptr noundef nonnull align 8 dereferenceable(541) %0, ptr noundef %1) unnamed_addr #4 align 2 personality ptr @__gxx_personality_v0 {
  %3 = getelementptr inbounds i8, ptr %0, i64 544
  tail call void @_ZN11colvarparseC2Ev(ptr noundef nonnull align 8 dereferenceable(320) %3)
  %4 = getelementptr inbounds i8, ptr %0, i64 864
  invoke void @_ZN10colvardepsC2Ev(ptr noundef nonnull align 8 dereferenceable(120) %4)
          to label %5 unwind label %10

5:                                                ; preds = %2
  invoke void @_ZN10colvarbiasC2EPKc(ptr noundef nonnull align 8 dereferenceable(312) %0, ptr noundef nonnull getelementptr inbounds ([6 x ptr], ptr @_ZTT14colvarbias_alb, i64 0, i64 1), ptr noundef %1)
          to label %6 unwind label %12

6:                                                ; preds = %5
  store ptr getelementptr inbounds inrange(-32, 264) ({ [37 x ptr], [17 x ptr], [13 x ptr] }, ptr @_ZTV14colvarbias_alb, i64 0, i32 0, i64 4), ptr %0, align 8
  store ptr getelementptr inbounds inrange(-72, 64) ({ [37 x ptr], [17 x ptr], [13 x ptr] }, ptr @_ZTV14colvarbias_alb, i64 0, i32 1, i64 9), ptr %3, align 8
  store ptr getelementptr inbounds inrange(-56, 48) ({ [37 x ptr], [17 x ptr], [13 x ptr] }, ptr @_ZTV14colvarbias_alb, i64 0, i32 2, i64 7), ptr %4, align 8
  %7 = getelementptr inbounds i8, ptr %0, i64 312
  %8 = getelementptr inbounds i8, ptr %0, i64 392
  %9 = getelementptr inbounds i8, ptr %0, i64 536
  tail call void @llvm.memset.p0.i64(ptr noundef nonnull align 8 dereferenceable(76) %7, i8 0, i64 76, i1 false)
  tail call void @llvm.memset.p0.i64(ptr noundef nonnull align 8 dereferenceable(144) %8, i8 0, i64 144, i1 false)
  store i8 1, ptr %9, align 8
  ret void

10:                                               ; preds = %2
  %11 = landingpad { ptr, i32 }
          cleanup
  br label %14

12:                                               ; preds = %5
  %13 = landingpad { ptr, i32 }
          cleanup
  tail call void @_ZN10colvardepsD2Ev(ptr noundef nonnull align 8 dereferenceable(120) %4) #21
  br label %14

14:                                               ; preds = %12, %10
  %.pn = phi { ptr, i32 } [ %13, %12 ], [ %11, %10 ]
  tail call void @_ZN11colvarparseD2Ev(ptr noundef nonnull align 8 dereferenceable(320) %3) #21
  resume { ptr, i32 } %.pn
}